target datalayout = "e-m:e-p270:32:32-p271:32:32-p272:64:64-i64:64-i128:128-f80:128-n8:16:32:64-S128"
target triple = "x86_64-pc-linux-gnu"

%struct.ComplexMatrixN = type { i32, ptr, ptr }

; Function Attrs: nounwind uwtable
define i32 @isCompletelyPositiveMapN(ptr noundef %0, i32 noundef %1) #0 {
  %3 = alloca i32, align 4
  %4 = alloca ptr, align 8
  %5 = alloca i32, align 4
  %6 = alloca i32, align 4
  %7 = alloca double, align 8
  %8 = alloca i32, align 4
  %9 = alloca i32, align 4
  %10 = alloca i32, align 4
  %11 = alloca double, align 8
  %12 = alloca double, align 8
  %13 = alloca i32, align 4
  %14 = alloca i32, align 4
  %15 = alloca double, align 8
  %16 = alloca double, align 8
  store ptr %0, ptr %4, align 8, !tbaa !28
  store i32 %1, ptr %5, align 4, !tbaa !9
  call void @llvm.lifetime.start.p0(i64 4, ptr %6) #7
  %17 = load ptr, ptr %4, align 8, !tbaa !28
  %18 = getelementptr inbounds %struct.ComplexMatrixN, ptr %17, i64 0
  %19 = getelementptr inbounds nuw %struct.ComplexMatrixN, ptr %18, i32 0, i32 0
  %20 = load i32, ptr %19, align 8, !tbaa !16
  %21 = shl i32 1, %20
  store i32 %21, ptr %6, align 4, !tbaa !9
  call void @llvm.lifetime.start.p0(i64 8, ptr %7) #7
  store double 1.000000e-26, ptr %7, align 8, !tbaa !15
  call void @llvm.lifetime.start.p0(i64 4, ptr %8) #7
  store i32 0, ptr %8, align 4, !tbaa !9
  br label %22

22:                                               ; preds = %202, %2
  %23 = load i32, ptr %8, align 4, !tbaa !9
  %24 = load i32, ptr %6, align 4, !tbaa !9
  %25 = icmp slt i32 %23, %24
  br i1 %25, label %27, label %26

26:                                               ; preds = %22
  store i32 2, ptr %9, align 4
  br label %205

27:                                               ; preds = %22
  call void @llvm.lifetime.start.p0(i64 4, ptr %10) #7
  store i32 0, ptr %10, align 4, !tbaa !9
  br label %28

28:                                               ; preds = %196, %27
  %29 = load i32, ptr %10, align 4, !tbaa !9
  %30 = load i32, ptr %6, align 4, !tbaa !9
  %31 = icmp slt i32 %29, %30
  br i1 %31, label %33, label %32

32:                                               ; preds = %28
  store i32 5, ptr %9, align 4
  br label %199

33:                                               ; preds = %28
  call void @llvm.lifetime.start.p0(i64 8, ptr %11) #7
  store double 0.000000e+00, ptr %11, align 8, !tbaa !15
  call void @llvm.lifetime.start.p0(i64 8, ptr %12) #7
  store double 0.000000e+00, ptr %12, align 8, !tbaa !15
  call void @llvm.lifetime.start.p0(i64 4, ptr %13) #7
  store i32 0, ptr %13, align 4, !tbaa !9
  br label %34

34:                                               ; preds = %171, %33
  %35 = load i32, ptr %13, align 4, !tbaa !9
  %36 = load i32, ptr %5, align 4, !tbaa !9
  %37 = icmp slt i32 %35, %36
  br i1 %37, label %39, label %38

38:                                               ; preds = %34
  store i32 8, ptr %9, align 4
  call void @llvm.lifetime.end.p0(i64 4, ptr %13) #7
  br label %174

39:                                               ; preds = %34
  call void @llvm.lifetime.start.p0(i64 4, ptr %14) #7
  store i32 0, ptr %14, align 4, !tbaa !9
  br label %40

40:                                               ; preds = %167, %39
  %41 = load i32, ptr %14, align 4, !tbaa !9
  %42 = load i32, ptr %6, align 4, !tbaa !9
  %43 = icmp slt i32 %41, %42
  br i1 %43, label %45, label %44

44:                                               ; preds = %40
  store i32 11, ptr %9, align 4
  call void @llvm.lifetime.end.p0(i64 4, ptr %14) #7
  br label %170

45:                                               ; preds = %40
  %46 = load ptr, ptr %4, align 8, !tbaa !28
  %47 = load i32, ptr %13, align 4, !tbaa !9
  %48 = sext i32 %47 to i64
  %49 = getelementptr inbounds %struct.ComplexMatrixN, ptr %46, i64 %48
  %50 = getelementptr inbounds nuw %struct.ComplexMatrixN, ptr %49, i32 0, i32 1
  %51 = load ptr, ptr %50, align 8, !tbaa !20
  %52 = load i32, ptr %14, align 4, !tbaa !9
  %53 = sext i32 %52 to i64
  %54 = getelementptr inbounds ptr, ptr %51, i64 %53
  %55 = load ptr, ptr %54, align 8, !tbaa !21
  %56 = load i32, ptr %8, align 4, !tbaa !9
  %57 = sext i32 %56 to i64
  %58 = getelementptr inbounds double, ptr %55, i64 %57
  %59 = load double, ptr %58, align 8, !tbaa !15
  %60 = load ptr, ptr %4, align 8, !tbaa !28
  %61 = load i32, ptr %13, align 4, !tbaa !9
  %62 = sext i32 %61 to i64
  %63 = getelementptr inbounds %struct.ComplexMatrixN, ptr %60, i64 %62
  %64 = getelementptr inbounds nuw %struct.ComplexMatrixN, ptr %63, i32 0, i32 1
  %65 = load ptr, ptr %64, align 8, !tbaa !20
  %66 = load i32, ptr %14, align 4, !tbaa !9
  %67 = sext i32 %66 to i64
  %68 = getelementptr inbounds ptr, ptr %65, i64 %67
  %69 = load ptr, ptr %68, align 8, !tbaa !21
  %70 = load i32, ptr %10, align 4, !tbaa !9
  %71 = sext i32 %70 to i64
  %72 = getelementptr inbounds double, ptr %69, i64 %71
  %73 = load double, ptr %72, align 8, !tbaa !15
  %74 = load ptr, ptr %4, align 8, !tbaa !28
  %75 = load i32, ptr %13, align 4, !tbaa !9
  %76 = sext i32 %75 to i64
  %77 = getelementptr inbounds %struct.ComplexMatrixN, ptr %74, i64 %76
  %78 = getelementptr inbounds nuw %struct.ComplexMatrixN, ptr %77, i32 0, i32 2
  %79 = load ptr, ptr %78, align 8, !tbaa !23
  %80 = load i32, ptr %14, align 4, !tbaa !9
  %81 = sext i32 %80 to i64
  %82 = getelementptr inbounds ptr, ptr %79, i64 %81
  %83 = load ptr, ptr %82, align 8, !tbaa !21
  %84 = load i32, ptr %8, align 4, !tbaa !9
  %85 = sext i32 %84 to i64
  %86 = getelementptr inbounds double, ptr %83, i64 %85
  %87 = load double, ptr %86, align 8, !tbaa !15
  %88 = load ptr, ptr %4, align 8, !tbaa !28
  %89 = load i32, ptr %13, align 4, !tbaa !9
  %90 = sext i32 %89 to i64
  %91 = getelementptr inbounds %struct.ComplexMatrixN, ptr %88, i64 %90
  %92 = getelementptr inbounds nuw %struct.ComplexMatrixN, ptr %91, i32 0, i32 2
  %93 = load ptr, ptr %92, align 8, !tbaa !23
  %94 = load i32, ptr %14, align 4, !tbaa !9
  %95 = sext i32 %94 to i64
  %96 = getelementptr inbounds ptr, ptr %93, i64 %95
  %97 = load ptr, ptr %96, align 8, !tbaa !21
  %98 = load i32, ptr %10, align 4, !tbaa !9
  %99 = sext i32 %98 to i64
  %100 = getelementptr inbounds double, ptr %97, i64 %99
  %101 = load double, ptr %100, align 8, !tbaa !15
  %102 = fmul double %87, %101
  %103 = call double @llvm.fmuladd.f64(double %59, double %73, double %102)
  %104 = load double, ptr %11, align 8, !tbaa !15
  %105 = fadd double %104, %103
  store double %105, ptr %11, align 8, !tbaa !15
  %106 = load ptr, ptr %4, align 8, !tbaa !28
  %107 = load i32, ptr %13, align 4, !tbaa !9
  %108 = sext i32 %107 to i64
  %109 = getelementptr inbounds %struct.ComplexMatrixN, ptr %106, i64 %108
  %110 = getelementptr inbounds nuw %struct.ComplexMatrixN, ptr %109, i32 0, i32 1
  %111 = load ptr, ptr %110, align 8, !tbaa !20
  %112 = load i32, ptr %14, align 4, !tbaa !9
  %113 = sext i32 %112 to i64
  %114 = getelementptr inbounds ptr, ptr %111, i64 %113
  %115 = load ptr, ptr %114, align 8, !tbaa !21
  %116 = load i32, ptr %8, align 4, !tbaa !9
  %117 = sext i32 %116 to i64
  %118 = getelementptr inbounds double, ptr %115, i64 %117
  %119 = load double, ptr %118, align 8, !tbaa !15
  %120 = load ptr, ptr %4, align 8, !tbaa !28
  %121 = load i32, ptr %13, align 4, !tbaa !9
  %122 = sext i32 %121 to i64
  %123 = getelementptr inbounds %struct.ComplexMatrixN, ptr %120, i64 %122
  %124 = getelementptr inbounds nuw %struct.ComplexMatrixN, ptr %123, i32 0, i32 2
  %125 = load ptr, ptr %124, align 8, !tbaa !23
  %126 = load i32, ptr %14, align 4, !tbaa !9
  %127 = sext i32 %126 to i64
  %128 = getelementptr inbounds ptr, ptr %125, i64 %127
  %129 = load ptr, ptr %128, align 8, !tbaa !21
  %130 = load i32, ptr %10, align 4, !tbaa !9
  %131 = sext i32 %130 to i64
  %132 = getelementptr inbounds double, ptr %129, i64 %131
  %133 = load double, ptr %132, align 8, !tbaa !15
  %134 = load ptr, ptr %4, align 8, !tbaa !28
  %135 = load i32, ptr %13, align 4, !tbaa !9
  %136 = sext i32 %135 to i64
  %137 = getelementptr inbounds %struct.ComplexMatrixN, ptr %134, i64 %136
  %138 = getelementptr inbounds nuw %struct.ComplexMatrixN, ptr %137, i32 0, i32 2
  %139 = load ptr, ptr %138, align 8, !tbaa !23
  %140 = load i32, ptr %14, align 4, !tbaa !9
  %141 = sext i32 %140 to i64
  %142 = getelementptr inbounds ptr, ptr %139, i64 %141
  %143 = load ptr, ptr %142, align 8, !tbaa !21
  %144 = load i32, ptr %8, align 4, !tbaa !9
  %145 = sext i32 %144 to i64
  %146 = getelementptr inbounds double, ptr %143, i64 %145
  %147 = load double, ptr %146, align 8, !tbaa !15
  %148 = load ptr, ptr %4, align 8, !tbaa !28
  %149 = load i32, ptr %13, align 4, !tbaa !9
  %150 = sext i32 %149 to i64
  %151 = getelementptr inbounds %struct.ComplexMatrixN, ptr %148, i64 %150
  %152 = getelementptr inbounds nuw %struct.ComplexMatrixN, ptr %151, i32 0, i32 1
  %153 = load ptr, ptr %152, align 8, !tbaa !20
  %154 = load i32, ptr %14, align 4, !tbaa !9
  %155 = sext i32 %154 to i64
  %156 = getelementptr inbounds ptr, ptr %153, i64 %155
  %157 = load ptr, ptr %156, align 8, !tbaa !21
  %158 = load i32, ptr %10, align 4, !tbaa !9
  %159 = sext i32 %158 to i64
  %160 = getelementptr inbounds double, ptr %157, i64 %159
  %161 = load double, ptr %160, align 8, !tbaa !15
  %162 = fmul double %147, %161
  %163 = fneg double %162
  %164 = call double @llvm.fmuladd.f64(double %119, double %133, double %163)
  %165 = load double, ptr %12, align 8, !tbaa !15
  %166 = fadd double %165, %164
  store double %166, ptr %12, align 8, !tbaa !15
  br label %167

167:                                              ; preds = %45
  %168 = load i32, ptr %14, align 4, !tbaa !9
  %169 = add nsw i32 %168, 1
  store i32 %169, ptr %14, align 4, !tbaa !9
  br label %40

170:                                              ; preds = %44
  br label %171

171:                                              ; preds = %170
  %172 = load i32, ptr %13, align 4, !tbaa !9
  %173 = add nsw i32 %172, 1
  store i32 %173, ptr %13, align 4, !tbaa !9
  br label %34

174:                                              ; preds = %38
  call void @llvm.lifetime.start.p0(i64 8, ptr %15) #7
  %175 = load double, ptr %11, align 8, !tbaa !15
  %176 = load i32, ptr %8, align 4, !tbaa !9
  %177 = load i32, ptr %10, align 4, !tbaa !9
  %178 = icmp eq i32 %176, %177
  %179 = zext i1 %178 to i32
  %180 = sitofp i32 %179 to double
  %181 = fsub double %175, %180
  store double %181, ptr %15, align 8, !tbaa !15
  call void @llvm.lifetime.start.p0(i64 8, ptr %16) #7
  %182 = load double, ptr %12, align 8, !tbaa !15
  %183 = load double, ptr %12, align 8, !tbaa !15
  %184 = load double, ptr %15, align 8, !tbaa !15
  %185 = load double, ptr %15, align 8, !tbaa !15
  %186 = fmul double %184, %185
  %187 = call double @llvm.fmuladd.f64(double %182, double %183, double %186)
  store double %187, ptr %16, align 8, !tbaa !15
  %188 = load double, ptr %16, align 8, !tbaa !15
  %189 = load double, ptr %7, align 8, !tbaa !15
  %190 = fcmp ogt double %188, %189
  br i1 %190, label %191, label %192

191:                                              ; preds = %174
  store i32 0, ptr %3, align 4
  store i32 1, ptr %9, align 4
  br label %193

192:                                              ; preds = %174
  store i32 0, ptr %9, align 4
  br label %193

193:                                              ; preds = %192, %191
  call void @llvm.lifetime.end.p0(i64 8, ptr %16) #7
  call void @llvm.lifetime.end.p0(i64 8, ptr %15) #7
  call void @llvm.lifetime.end.p0(i64 8, ptr %12) #7
  call void @llvm.lifetime.end.p0(i64 8, ptr %11) #7
  %194 = load i32, ptr %9, align 4
  switch i32 %194, label %199 [
    i32 0, label %195
  ]

195:                                              ; preds = %193
  br label %196

196:                                              ; preds = %195
  %197 = load i32, ptr %10, align 4, !tbaa !9
  %198 = add nsw i32 %197, 1
  store i32 %198, ptr %10, align 4, !tbaa !9
  br label %28

199:                                              ; preds = %193, %32
  call void @llvm.lifetime.end.p0(i64 4, ptr %10) #7
  %200 = load i32, ptr %9, align 4
  switch i32 %200, label %205 [
    i32 5, label %201
  ]

201:                                              ; preds = %199
  br label %202

202:                                              ; preds = %201
  %203 = load i32, ptr %8, align 4, !tbaa !9
  %204 = add nsw i32 %203, 1
  store i32 %204, ptr %8, align 4, !tbaa !9
  br label %22

205:                                              ; preds = %199, %26
  call void @llvm.lifetime.end.p0(i64 4, ptr %8) #7
  %206 = load i32, ptr %9, align 4
  switch i32 %206, label %208 [
    i32 2, label %207
  ]

207:                                              ; preds = %205
  store i32 1, ptr %3, align 4
  store i32 1, ptr %9, align 4
  br label %208

208:                                              ; preds = %207, %205
  call void @llvm.lifetime.end.p0(i64 8, ptr %7) #7
  call void @llvm.lifetime.end.p0(i64 4, ptr %6) #7
  %209 = load i32, ptr %3, align 4
  ret i32 %209
}