; Function Attrs: nofree norecurse nosync nounwind memory(read, inaccessiblemem: none) uwtable
define range(i32 0, 2) i32 @isCompletelyPositiveMapN(ptr noundef readonly captures(none) %0, i32 noundef %1) local_unnamed_addr #8 {
.split:
  %2 = load i32, ptr %0, align 8, !tbaa !11
  %3 = shl nuw i32 1, %2
  %.not7397 = icmp eq i32 %2, 31
  br i1 %.not7397, label %.loopexit, label %.preheader75.lr.ph

.preheader75.lr.ph:                               ; preds = %.split
  %4 = icmp sgt i32 %1, 0
  br i1 %4, label %.preheader75.us.us.preheader, label %.loopexit

.preheader75.us.us.preheader:                     ; preds = %.preheader75.lr.ph
  %smax113 = tail call i32 @llvm.smax.i32(i32 %3, i32 1)
  %wide.trip.count128 = zext nneg i32 %smax113 to i64
  %wide.trip.count118 = zext nneg i32 %1 to i64
  br label %.preheader75.us.us

.preheader75.us.us:                               ; preds = %.preheader75.us.us.preheader, %..critedge_crit_edge.split.us.split.us.us.us
  %indvars.iv125 = phi i64 [ 0, %.preheader75.us.us.preheader ], [ %indvars.iv.next126, %..critedge_crit_edge.split.us.split.us.us.us ]
  br label %.preheader74.us.us.us.us

.preheader74.us.us.us.us:                         ; preds = %5, %.preheader75.us.us
  %indvars.iv120 = phi i64 [ %indvars.iv.next121, %5 ], [ 0, %.preheader75.us.us ]
  br label %.preheader.us.us.us.us.us

5:                                                ; preds = %._crit_edge86.split.us.us.us.us.us
  %indvars.iv.next121 = add nuw nsw i64 %indvars.iv120, 1
  %exitcond124.not = icmp eq i64 %indvars.iv.next121, %wide.trip.count128
  br i1 %exitcond124.not, label %..critedge_crit_edge.split.us.split.us.us.us, label %.preheader74.us.us.us.us

.preheader.us.us.us.us.us:                        ; preds = %._crit_edge.us.us.us.us.us, %.preheader74.us.us.us.us
  %indvars.iv115 = phi i64 [ %indvars.iv.next116, %._crit_edge.us.us.us.us.us ], [ 0, %.preheader74.us.us.us.us ]
  %.06484.us.us.us.us.us = phi double [ %30, %._crit_edge.us.us.us.us.us ], [ 0.000000e+00, %.preheader74.us.us.us.us ]
  %.06683.us.us.us.us.us = phi double [ %26, %._crit_edge.us.us.us.us.us ], [ 0.000000e+00, %.preheader74.us.us.us.us ]
  %6 = getelementptr inbounds nuw %struct.ComplexMatrixN, ptr %0, i64 %indvars.iv115
  %7 = getelementptr inbounds nuw i8, ptr %6, i64 8
  %8 = load ptr, ptr %7, align 8, !tbaa !18
  %9 = getelementptr inbounds nuw i8, ptr %6, i64 16
  %10 = load ptr, ptr %9, align 8, !tbaa !19
  br label %11

11:                                               ; preds = %11, %.preheader.us.us.us.us.us
  %indvars.iv = phi i64 [ %indvars.iv.next, %11 ], [ 0, %.preheader.us.us.us.us.us ]
  %.16580.us.us.us.us.us = phi double [ %30, %11 ], [ %.06484.us.us.us.us.us, %.preheader.us.us.us.us.us ]
  %.16779.us.us.us.us.us = phi double [ %26, %11 ], [ %.06683.us.us.us.us.us, %.preheader.us.us.us.us.us ]
  %12 = getelementptr inbounds nuw ptr, ptr %8, i64 %indvars.iv
  %13 = load ptr, ptr %12, align 8, !tbaa !16
  %14 = getelementptr inbounds nuw double, ptr %13, i64 %indvars.iv125
  %15 = load double, ptr %14, align 8, !tbaa !9
  %16 = getelementptr inbounds nuw double, ptr %13, i64 %indvars.iv120
  %17 = load double, ptr %16, align 8, !tbaa !9
  %18 = getelementptr inbounds nuw ptr, ptr %10, i64 %indvars.iv
  %19 = load ptr, ptr %18, align 8, !tbaa !16
  %20 = getelementptr inbounds nuw double, ptr %19, i64 %indvars.iv125
  %21 = load double, ptr %20, align 8, !tbaa !9
  %22 = getelementptr inbounds nuw double, ptr %19, i64 %indvars.iv120
  %23 = load double, ptr %22, align 8, !tbaa !9
  %24 = fmul double %21, %23
  %25 = tail call double @llvm.fmuladd.f64(double %15, double %17, double %24)
  %26 = fadd double %.16779.us.us.us.us.us, %25
  %27 = fneg double %17
  %28 = fmul double %21, %27
  %29 = tail call double @llvm.fmuladd.f64(double %15, double %23, double %28)
  %30 = fadd double %.16580.us.us.us.us.us, %29
  %indvars.iv.next = add nuw nsw i64 %indvars.iv, 1
  %exitcond114.not = icmp eq i64 %indvars.iv.next, %wide.trip.count128
  br i1 %exitcond114.not, label %._crit_edge.us.us.us.us.us, label %11

._crit_edge.us.us.us.us.us:                       ; preds = %11
  %indvars.iv.next116 = add nuw nsw i64 %indvars.iv115, 1
  %exitcond119.not = icmp eq i64 %indvars.iv.next116, %wide.trip.count118
  br i1 %exitcond119.not, label %._crit_edge86.split.us.us.us.us.us, label %.preheader.us.us.us.us.us

._crit_edge86.split.us.us.us.us.us:               ; preds = %._crit_edge.us.us.us.us.us
  %31 = icmp eq i64 %indvars.iv125, %indvars.iv120
  %32 = uitofp i1 %31 to double
  %33 = fsub double %26, %32
  %34 = fmul double %33, %33
  %35 = tail call double @llvm.fmuladd.f64(double %30, double %30, double %34)
  %36 = fcmp ule double %35, 1.000000e-26
  br i1 %36, label %5, label %.loopexit

..critedge_crit_edge.split.us.split.us.us.us:     ; preds = %5
  %indvars.iv.next126 = add nuw nsw i64 %indvars.iv125, 1
  %exitcond129.not = icmp eq i64 %indvars.iv.next126, %wide.trip.count128
  br i1 %exitcond129.not, label %.loopexit, label %.preheader75.us.us

.loopexit:                                        ; preds = %..critedge_crit_edge.split.us.split.us.us.us, %._crit_edge86.split.us.us.us.us.us, %.preheader75.lr.ph, %.split
  %.not7378 = phi i32 [ 1, %.split ], [ 0, %.preheader75.lr.ph ], [ 0, %._crit_edge86.split.us.us.us.us.us ], [ 1, %..critedge_crit_edge.split.us.split.us.us.us ]
  ret i32 %.not7378
}